; ModuleID = '58/5.c'
source_filename = "58/5.c"
target datalayout = "e-m:e-p270:32:32-p271:32:32-p272:64:64-i64:64-f80:128-n8:16:32:64-S128"
target triple = "x86_64-pc-linux-gnu"

@.str = private unnamed_addr constant [3 x i8] c"1\0A\00", align 1
@.str.1 = private unnamed_addr constant [3 x i8] c"0\0A\00", align 1

; Function Attrs: noinline nounwind uwtable
define dso_local i32 @main() #0 {
  %1 = alloca i32, align 4
  %2 = alloca i32, align 4
  %3 = alloca i32, align 4
  %4 = alloca i32, align 4
  %5 = alloca i32, align 4
  %6 = alloca i32, align 4
  %7 = alloca [50000 x [82 x i8]], align 16
  %8 = alloca [100 x i8], align 16
  store i32 0, i32* %1, align 4
  store i32 0, i32* %6, align 4
  %9 = getelementptr inbounds [100 x i8], [100 x i8]* %8, i64 0, i64 0
  %10 = call i32 (i8*, ...) bitcast (i32 (...)* @gets to i32 (i8*, ...)*)(i8* %9)
  %11 = getelementptr inbounds [100 x i8], [100 x i8]* %8, i64 0, i64 0
  %12 = call i32 @atoi(i8* %11) #3
  store i32 %12, i32* %4, align 4
  store i32 0, i32* %2, align 4
  br label %13

13:                                               ; preds = %23, %0
  %14 = load i32, i32* %2, align 4
  %15 = load i32, i32* %4, align 4
  %16 = icmp slt i32 %14, %15
  br i1 %16, label %17, label %26

17:                                               ; preds = %13
  %18 = load i32, i32* %2, align 4
  %19 = sext i32 %18 to i64
  %20 = getelementptr inbounds [50000 x [82 x i8]], [50000 x [82 x i8]]* %7, i64 0, i64 %19
  %21 = getelementptr inbounds [82 x i8], [82 x i8]* %20, i64 0, i64 0
  %22 = call i32 (i8*, ...) bitcast (i32 (...)* @gets to i32 (i8*, ...)*)(i8* %21)
  br label %23

23:                                               ; preds = %17
  %24 = load i32, i32* %2, align 4
  %25 = add nsw i32 %24, 1
  store i32 %25, i32* %2, align 4
  br label %13

26:                                               ; preds = %13
  store i32 0, i32* %2, align 4
  br label %27

27:                                               ; preds = %171, %26
  %28 = load i32, i32* %2, align 4
  %29 = load i32, i32* %4, align 4
  %30 = icmp slt i32 %28, %29
  br i1 %30, label %31, label %174

31:                                               ; preds = %27
  store i32 0, i32* %6, align 4
  %32 = load i32, i32* %2, align 4
  %33 = sext i32 %32 to i64
  %34 = getelementptr inbounds [50000 x [82 x i8]], [50000 x [82 x i8]]* %7, i64 0, i64 %33
  %35 = getelementptr inbounds [82 x i8], [82 x i8]* %34, i64 0, i64 0
  %36 = load i8, i8* %35, align 2
  %37 = sext i8 %36 to i32
  %38 = icmp eq i32 %37, 95
  br i1 %38, label %71, label %39

39:                                               ; preds = %31
  %40 = load i32, i32* %2, align 4
  %41 = sext i32 %40 to i64
  %42 = getelementptr inbounds [50000 x [82 x i8]], [50000 x [82 x i8]]* %7, i64 0, i64 %41
  %43 = getelementptr inbounds [82 x i8], [82 x i8]* %42, i64 0, i64 0
  %44 = load i8, i8* %43, align 2
  %45 = sext i8 %44 to i32
  %46 = icmp sge i32 %45, 65
  br i1 %46, label %47, label %55

47:                                               ; preds = %39
  %48 = load i32, i32* %2, align 4
  %49 = sext i32 %48 to i64
  %50 = getelementptr inbounds [50000 x [82 x i8]], [50000 x [82 x i8]]* %7, i64 0, i64 %49
  %51 = getelementptr inbounds [82 x i8], [82 x i8]* %50, i64 0, i64 0
  %52 = load i8, i8* %51, align 2
  %53 = sext i8 %52 to i32
  %54 = icmp sle i32 %53, 90
  br i1 %54, label %71, label %55

55:                                               ; preds = %47, %39
  %56 = load i32, i32* %2, align 4
  %57 = sext i32 %56 to i64
  %58 = getelementptr inbounds [50000 x [82 x i8]], [50000 x [82 x i8]]* %7, i64 0, i64 %57
  %59 = getelementptr inbounds [82 x i8], [82 x i8]* %58, i64 0, i64 0
  %60 = load i8, i8* %59, align 2
  %61 = sext i8 %60 to i32
  %62 = icmp sge i32 %61, 97
  br i1 %62, label %63, label %163

63:                                               ; preds = %55
  %64 = load i32, i32* %2, align 4
  %65 = sext i32 %64 to i64
  %66 = getelementptr inbounds [50000 x [82 x i8]], [50000 x [82 x i8]]* %7, i64 0, i64 %65
  %67 = getelementptr inbounds [82 x i8], [82 x i8]* %66, i64 0, i64 0
  %68 = load i8, i8* %67, align 2
  %69 = sext i8 %68 to i32
  %70 = icmp sle i32 %69, 122
  br i1 %70, label %71, label %163

71:                                               ; preds = %63, %47, %31
  %72 = load i32, i32* %2, align 4
  %73 = sext i32 %72 to i64
  %74 = getelementptr inbounds [50000 x [82 x i8]], [50000 x [82 x i8]]* %7, i64 0, i64 %73
  %75 = getelementptr inbounds [82 x i8], [82 x i8]* %74, i64 0, i64 0
  %76 = call i64 @strlen(i8* %75) #3
  %77 = trunc i64 %76 to i32
  store i32 %77, i32* %5, align 4
  store i32 0, i32* %3, align 4
  br label %78

78:                                               ; preds = %159, %71
  %79 = load i32, i32* %3, align 4
  %80 = load i32, i32* %5, align 4
  %81 = icmp slt i32 %79, %80
  br i1 %81, label %82, label %162

82:                                               ; preds = %78
  %83 = load i32, i32* %2, align 4
  %84 = sext i32 %83 to i64
  %85 = getelementptr inbounds [50000 x [82 x i8]], [50000 x [82 x i8]]* %7, i64 0, i64 %84
  %86 = load i32, i32* %3, align 4
  %87 = sext i32 %86 to i64
  %88 = getelementptr inbounds [82 x i8], [82 x i8]* %85, i64 0, i64 %87
  %89 = load i8, i8* %88, align 1
  %90 = sext i8 %89 to i32
  %91 = icmp eq i32 %90, 95
  br i1 %91, label %152, label %92

92:                                               ; preds = %82
  %93 = load i32, i32* %2, align 4
  %94 = sext i32 %93 to i64
  %95 = getelementptr inbounds [50000 x [82 x i8]], [50000 x [82 x i8]]* %7, i64 0, i64 %94
  %96 = load i32, i32* %3, align 4
  %97 = sext i32 %96 to i64
  %98 = getelementptr inbounds [82 x i8], [82 x i8]* %95, i64 0, i64 %97
  %99 = load i8, i8* %98, align 1
  %100 = sext i8 %99 to i32
  %101 = icmp sge i32 %100, 65
  br i1 %101, label %102, label %112

102:                                              ; preds = %92
  %103 = load i32, i32* %2, align 4
  %104 = sext i32 %103 to i64
  %105 = getelementptr inbounds [50000 x [82 x i8]], [50000 x [82 x i8]]* %7, i64 0, i64 %104
  %106 = load i32, i32* %3, align 4
  %107 = sext i32 %106 to i64
  %108 = getelementptr inbounds [82 x i8], [82 x i8]* %105, i64 0, i64 %107
  %109 = load i8, i8* %108, align 1
  %110 = sext i8 %109 to i32
  %111 = icmp sle i32 %110, 90
  br i1 %111, label %152, label %112

112:                                              ; preds = %102, %92
  %113 = load i32, i32* %2, align 4
  %114 = sext i32 %113 to i64
  %115 = getelementptr inbounds [50000 x [82 x i8]], [50000 x [82 x i8]]* %7, i64 0, i64 %114
  %116 = load i32, i32* %3, align 4
  %117 = sext i32 %116 to i64
  %118 = getelementptr inbounds [82 x i8], [82 x i8]* %115, i64 0, i64 %117
  %119 = load i8, i8* %118, align 1
  %120 = sext i8 %119 to i32
  %121 = icmp sge i32 %120, 97
  br i1 %121, label %122, label %132

122:                                              ; preds = %112
  %123 = load i32, i32* %2, align 4
  %124 = sext i32 %123 to i64
  %125 = getelementptr inbounds [50000 x [82 x i8]], [50000 x [82 x i8]]* %7, i64 0, i64 %124
  %126 = load i32, i32* %3, align 4
  %127 = sext i32 %126 to i64
  %128 = getelementptr inbounds [82 x i8], [82 x i8]* %125, i64 0, i64 %127
  %129 = load i8, i8* %128, align 1
  %130 = sext i8 %129 to i32
  %131 = icmp sle i32 %130, 122
  br i1 %131, label %152, label %132

132:                                              ; preds = %122, %112
  %133 = load i32, i32* %2, align 4
  %134 = sext i32 %133 to i64
  %135 = getelementptr inbounds [50000 x [82 x i8]], [50000 x [82 x i8]]* %7, i64 0, i64 %134
  %136 = load i32, i32* %3, align 4
  %137 = sext i32 %136 to i64
  %138 = getelementptr inbounds [82 x i8], [82 x i8]* %135, i64 0, i64 %137
  %139 = load i8, i8* %138, align 1
  %140 = sext i8 %139 to i32
  %141 = icmp sge i32 %140, 48
  br i1 %141, label %142, label %153

142:                                              ; preds = %132
  %143 = load i32, i32* %2, align 4
  %144 = sext i32 %143 to i64
  %145 = getelementptr inbounds [50000 x [82 x i8]], [50000 x [82 x i8]]* %7, i64 0, i64 %144
  %146 = load i32, i32* %3, align 4
  %147 = sext i32 %146 to i64
  %148 = getelementptr inbounds [82 x i8], [82 x i8]* %145, i64 0, i64 %147
  %149 = load i8, i8* %148, align 1
  %150 = sext i8 %149 to i32
  %151 = icmp sle i32 %150, 57
  br i1 %151, label %152, label %153

152:                                              ; preds = %142, %122, %102, %82
  store i32 1, i32* %6, align 4
  br label %154

153:                                              ; preds = %142, %132
  store i32 0, i32* %6, align 4
  br label %154

154:                                              ; preds = %153, %152
  %155 = load i32, i32* %6, align 4
  %156 = icmp eq i32 %155, 0
  br i1 %156, label %157, label %158

157:                                              ; preds = %154
  br label %162

158:                                              ; preds = %154
  br label %159

159:                                              ; preds = %158
  %160 = load i32, i32* %3, align 4
  %161 = add nsw i32 %160, 1
  store i32 %161, i32* %3, align 4
  br label %78

162:                                              ; preds = %157, %78
  br label %163

163:                                              ; preds = %162, %63, %55
  %164 = load i32, i32* %6, align 4
  %165 = icmp eq i32 %164, 1
  br i1 %165, label %166, label %168

166:                                              ; preds = %163
  %167 = call i32 (i8*, ...) @printf(i8* getelementptr inbounds ([3 x i8], [3 x i8]* @.str, i64 0, i64 0))
  br label %170

168:                                              ; preds = %163
  %169 = call i32 (i8*, ...) @printf(i8* getelementptr inbounds ([3 x i8], [3 x i8]* @.str.1, i64 0, i64 0))
  br label %170

170:                                              ; preds = %168, %166
  br label %171

171:                                              ; preds = %170
  %172 = load i32, i32* %2, align 4
  %173 = add nsw i32 %172, 1
  store i32 %173, i32* %2, align 4
  br label %27

174:                                              ; preds = %27
  ret i32 0
}

declare dso_local i32 @gets(...) #1

; Function Attrs: nounwind readonly
declare dso_local i32 @atoi(i8*) #2

; Function Attrs: nounwind readonly
declare dso_local i64 @strlen(i8*) #2

declare dso_local i32 @printf(i8*, ...) #1


!llvm.module.flags = !{!0}
!llvm.ident = !{!1}

!0 = !{i32 1, !"wchar_size", i32 4}
!1 = !{!"clang version 10.0.0-4ubuntu1 "}
